; Function Attrs: inlinehint mustprogress nounwind uwtable
define internal fastcc void @_ZN3ue212_GLOBAL__N_115state_prev_infoD2Ev(ptr noundef nonnull readonly align 8 captures(none) dereferenceable(24) %0) unnamed_addr #4 align 2 personality ptr @__gxx_personality_v0 {
  %2 = load ptr, ptr %0, align 8
  %3 = getelementptr inbounds nuw i8, ptr %0, i64 8
  %4 = load ptr, ptr %3, align 8
  %.not4.i.i.i.i = icmp eq ptr %2, %4
  br i1 %.not4.i.i.i.i, label %_ZSt8_DestroyIPSt6vectorItSaItEES2_EvT_S4_RSaIT0_E.exit.i, label %.lr.ph.i.i.i.i

.lr.ph.i.i.i.i:                                   ; preds = %1, %_ZSt8_DestroyISt6vectorItSaItEEEvPT_.exit.i.i.i.i
  %.05.i.i.i.i = phi ptr [ %7, %_ZSt8_DestroyISt6vectorItSaItEEEvPT_.exit.i.i.i.i ], [ %2, %1 ]
  %5 = load ptr, ptr %.05.i.i.i.i, align 8
  %.not.i.i.i.i.i.i.i.i = icmp eq ptr %5, null
  br i1 %.not.i.i.i.i.i.i.i.i, label %_ZSt8_DestroyISt6vectorItSaItEEEvPT_.exit.i.i.i.i, label %6

6:                                                ; preds = %.lr.ph.i.i.i.i
  tail call void @_ZdlPv(ptr noundef nonnull %5) #26
  br label %_ZSt8_DestroyISt6vectorItSaItEEEvPT_.exit.i.i.i.i

_ZSt8_DestroyISt6vectorItSaItEEEvPT_.exit.i.i.i.i: ; preds = %6, %.lr.ph.i.i.i.i
  %7 = getelementptr inbounds nuw i8, ptr %.05.i.i.i.i, i64 24
  %.not.i.i.i.i = icmp eq ptr %7, %4
  br i1 %.not.i.i.i.i, label %_ZSt8_DestroyIPSt6vectorItSaItEES2_EvT_S4_RSaIT0_E.exitthread-pre-split.i, label %.lr.ph.i.i.i.i, !llvm.loop !164

_ZSt8_DestroyIPSt6vectorItSaItEES2_EvT_S4_RSaIT0_E.exitthread-pre-split.i: ; preds = %_ZSt8_DestroyISt6vectorItSaItEEEvPT_.exit.i.i.i.i
  %.pr.i = load ptr, ptr %0, align 8
  br label %_ZSt8_DestroyIPSt6vectorItSaItEES2_EvT_S4_RSaIT0_E.exit.i

_ZSt8_DestroyIPSt6vectorItSaItEES2_EvT_S4_RSaIT0_E.exit.i: ; preds = %_ZSt8_DestroyIPSt6vectorItSaItEES2_EvT_S4_RSaIT0_E.exitthread-pre-split.i, %1
  %8 = phi ptr [ %.pr.i, %_ZSt8_DestroyIPSt6vectorItSaItEES2_EvT_S4_RSaIT0_E.exitthread-pre-split.i ], [ %2, %1 ]
  %.not.i.i.i = icmp eq ptr %8, null
  br i1 %.not.i.i.i, label %_ZNSt6vectorIS_ItSaItEESaIS1_EED2Ev.exit, label %9

9:                                                ; preds = %_ZSt8_DestroyIPSt6vectorItSaItEES2_EvT_S4_RSaIT0_E.exit.i
  tail call void @_ZdlPv(ptr noundef nonnull %8) #26
  br label %_ZNSt6vectorIS_ItSaItEESaIS1_EED2Ev.exit

_ZNSt6vectorIS_ItSaItEESaIS1_EED2Ev.exit:         ; preds = %_ZSt8_DestroyIPSt6vectorItSaItEES2_EvT_S4_RSaIT0_E.exit.i, %9
  ret void
}